libKF5Vkontakte.so.2:_ZN9Vkontakte11UserInfoJob10handleDataERK10QJsonValue
libKF5Vkontakte.so.2:_ZN9Vkontakte11UserInfoJob11qt_metacallEN11QMetaObject4CallEiPPv
libKF5Vkontakte.so.2:_ZN9Vkontakte11UserInfoJob11qt_metacastEPKc
libKF5Vkontakte.so.2:_ZN9Vkontakte11UserInfoJob16staticMetaObjectE
libKF5Vkontakte.so.2:_ZN9Vkontakte11UserInfoJob17prepareQueryItemsEv
libKF5Vkontakte.so.2:_ZN9Vkontakte11UserInfoJob9setFieldsERK11QStringList
libKF5Vkontakte.so.2:_ZN9Vkontakte11UserInfoJobC1ERK7QString
libKF5Vkontakte.so.2:_ZN9Vkontakte11UserInfoJobC1ERK7QStringRK5QListIiE
libKF5Vkontakte.so.2:_ZN9Vkontakte11UserInfoJobC1ERK7QStringi
libKF5Vkontakte.so.2:_ZN9Vkontakte11UserInfoJobC2ERK7QString
libKF5Vkontakte.so.2:_ZN9Vkontakte11UserInfoJobC2ERK7QStringRK5QListIiE
libKF5Vkontakte.so.2:_ZN9Vkontakte11UserInfoJobC2ERK7QStringi
libKF5Vkontakte.so.2:_ZN9Vkontakte11UserInfoJobD0Ev
libKF5Vkontakte.so.2:_ZN9Vkontakte11UserInfoJobD1Ev
libKF5Vkontakte.so.2:_ZN9Vkontakte11UserInfoJobD2Ev
libKF5Vkontakte.so.2:_ZN9Vkontakte12AlbumListJob10handleDataERK10QJsonValue
libKF5Vkontakte.so.2:_ZN9Vkontakte12AlbumListJob11qt_metacallEN11QMetaObject4CallEiPPv
libKF5Vkontakte.so.2:_ZN9Vkontakte12AlbumListJob11qt_metacastEPKc
libKF5Vkontakte.so.2:_ZN9Vkontakte12AlbumListJob16staticMetaObjectE
libKF5Vkontakte.so.2:_ZN9Vkontakte12AlbumListJobC1ERK7QStringiRK5QListIiE
libKF5Vkontakte.so.2:_ZN9Vkontakte12AlbumListJobC2ERK7QStringiRK5QListIiE
libKF5Vkontakte.so.2:_ZN9Vkontakte12AlbumListJobD0Ev
libKF5Vkontakte.so.2:_ZN9Vkontakte12AlbumListJobD1Ev
libKF5Vkontakte.so.2:_ZN9Vkontakte12AlbumListJobD2Ev
libKF5Vkontakte.so.2:_ZN9Vkontakte12EditAlbumJob10handleDataERK10QJsonValue
libKF5Vkontakte.so.2:_ZN9Vkontakte12EditAlbumJobC1ERK7QStringiS3_S3_ii
libKF5Vkontakte.so.2:_ZN9Vkontakte12EditAlbumJobC2ERK7QStringiS3_S3_ii
libKF5Vkontakte.so.2:_ZN9Vkontakte12PhotoListJob10handleDataERK10QJsonValue
libKF5Vkontakte.so.2:_ZN9Vkontakte12PhotoListJob11qt_metacallEN11QMetaObject4CallEiPPv
libKF5Vkontakte.so.2:_ZN9Vkontakte12PhotoListJob11qt_metacastEPKc
libKF5Vkontakte.so.2:_ZN9Vkontakte12PhotoListJob16staticMetaObjectE
libKF5Vkontakte.so.2:_ZN9Vkontakte12PhotoListJobC1ERK7QStringiiRK5QListIiE
libKF5Vkontakte.so.2:_ZN9Vkontakte12PhotoListJobC2ERK7QStringiiRK5QListIiE
libKF5Vkontakte.so.2:_ZN9Vkontakte12PhotoListJobD0Ev
libKF5Vkontakte.so.2:_ZN9Vkontakte12PhotoListJobD1Ev
libKF5Vkontakte.so.2:_ZN9Vkontakte12PhotoListJobD2Ev
libKF5Vkontakte.so.2:_ZN9Vkontakte12VkontakteJob11handleErrorERK10QJsonValue
libKF5Vkontakte.so.2:_ZN9Vkontakte12VkontakteJob11jobFinishedEP4KJob
libKF5Vkontakte.so.2:_ZN9Vkontakte12VkontakteJob11qt_metacallEN11QMetaObject4CallEiPPv
libKF5Vkontakte.so.2:_ZN9Vkontakte12VkontakteJob11qt_metacastEPKc
libKF5Vkontakte.so.2:_ZN9Vkontakte12VkontakteJob12addQueryItemERK7QStringS3_
libKF5Vkontakte.so.2:_ZN9Vkontakte12VkontakteJob13createHttpJobEv
libKF5Vkontakte.so.2:_ZN9Vkontakte12VkontakteJob16staticMetaObjectE
libKF5Vkontakte.so.2:_ZN9Vkontakte12VkontakteJob5startEv
libKF5Vkontakte.so.2:_ZN9Vkontakte12VkontakteJob9slotRetryEv
libKF5Vkontakte.so.2:_ZN9Vkontakte12VkontakteJobC1ERK7QStringS3_b
libKF5Vkontakte.so.2:_ZN9Vkontakte12VkontakteJobC2ERK7QStringS3_b
libKF5Vkontakte.so.2:_ZN9Vkontakte14CreateAlbumJob10handleDataERK10QJsonValue
libKF5Vkontakte.so.2:_ZN9Vkontakte14CreateAlbumJobC1ERK7QStringS3_S3_ii
libKF5Vkontakte.so.2:_ZN9Vkontakte14CreateAlbumJobC2ERK7QStringS3_S3_ii
libKF5Vkontakte.so.2:_ZN9Vkontakte14CreateAlbumJobD0Ev
libKF5Vkontakte.so.2:_ZN9Vkontakte14CreateAlbumJobD1Ev
libKF5Vkontakte.so.2:_ZN9Vkontakte14CreateAlbumJobD2Ev
libKF5Vkontakte.so.2:_ZN9Vkontakte14DeleteAlbumJob10handleDataERK10QJsonValue
libKF5Vkontakte.so.2:_ZN9Vkontakte14DeleteAlbumJobC1ERK7QStringi
libKF5Vkontakte.so.2:_ZN9Vkontakte14DeleteAlbumJobC2ERK7QStringi
libKF5Vkontakte.so.2:_ZN9Vkontakte14KJobWithSubjob6doKillEv
libKF5Vkontakte.so.2:_ZN9Vkontakte15KJobWithSubjobs6doKillEv
libKF5Vkontakte.so.2:_ZN9Vkontakte15UploadPhotosJob11qt_metacallEN11QMetaObject4CallEiPPv
libKF5Vkontakte.so.2:_ZN9Vkontakte15UploadPhotosJob11qt_metacastEPKc
libKF5Vkontakte.so.2:_ZN9Vkontakte15UploadPhotosJob12startPostJobEii
libKF5Vkontakte.so.2:_ZN9Vkontakte15UploadPhotosJob12startSaveJobERK4QMapI7QString8QVariantE
libKF5Vkontakte.so.2:_ZN9Vkontakte15UploadPhotosJob13MAX_POST_JOBSE
libKF5Vkontakte.so.2:_ZN9Vkontakte15UploadPhotosJob15mayStartPostJobEv
libKF5Vkontakte.so.2:_ZN9Vkontakte15UploadPhotosJob15postJobFinishedEP4KJob
libKF5Vkontakte.so.2:_ZN9Vkontakte15UploadPhotosJob15saveJobFinishedEP4KJob
libKF5Vkontakte.so.2:_ZN9Vkontakte15UploadPhotosJob16staticMetaObjectE
libKF5Vkontakte.so.2:_ZN9Vkontakte15UploadPhotosJob17serverJobFinishedEP4KJob
libKF5Vkontakte.so.2:_ZN9Vkontakte15UploadPhotosJob19REQUEST_FILES_COUNTE
libKF5Vkontakte.so.2:_ZN9Vkontakte15UploadPhotosJob5startEv
libKF5Vkontakte.so.2:_ZN9Vkontakte15UploadPhotosJob8progressEi
libKF5Vkontakte.so.2:_ZN9Vkontakte15UploadPhotosJobC1ERK7QStringRK11QStringListbii
libKF5Vkontakte.so.2:_ZN9Vkontakte15UploadPhotosJobC2ERK7QStringRK11QStringListbii
libKF5Vkontakte.so.2:_ZN9Vkontakte15UploadPhotosJobD0Ev
libKF5Vkontakte.so.2:_ZN9Vkontakte15UploadPhotosJobD1Ev
libKF5Vkontakte.so.2:_ZN9Vkontakte15UploadPhotosJobD2Ev
libKF5Vkontakte.so.2:_ZN9Vkontakte20AuthenticationDialog10urlChangedERK4QUrl
libKF5Vkontakte.so.2:_ZN9Vkontakte20AuthenticationDialog11qt_metacallEN11QMetaObject4CallEiPPv
libKF5Vkontakte.so.2:_ZN9Vkontakte20AuthenticationDialog11qt_metacastEPKc
libKF5Vkontakte.so.2:_ZN9Vkontakte20AuthenticationDialog12loadFinishedEb
libKF5Vkontakte.so.2:_ZN9Vkontakte20AuthenticationDialog13authenticatedERK7QString
libKF5Vkontakte.so.2:_ZN9Vkontakte20AuthenticationDialog14setDisplayModeERK7QString
libKF5Vkontakte.so.2:_ZN9Vkontakte20AuthenticationDialog14setPermissionsENS_14AppPermissions5ValueE
libKF5Vkontakte.so.2:_ZN9Vkontakte20AuthenticationDialog15showErrorDialogEv
libKF5Vkontakte.so.2:_ZN9Vkontakte20AuthenticationDialog16staticMetaObjectE
libKF5Vkontakte.so.2:_ZN9Vkontakte20AuthenticationDialog5startEv
libKF5Vkontakte.so.2:_ZN9Vkontakte20AuthenticationDialog8canceledEv
libKF5Vkontakte.so.2:_ZN9Vkontakte20AuthenticationDialog8setAppIdERK7QString
libKF5Vkontakte.so.2:_ZN9Vkontakte20AuthenticationDialogC1EP7QWidget
libKF5Vkontakte.so.2:_ZN9Vkontakte20AuthenticationDialogC2EP7QWidget
libKF5Vkontakte.so.2:_ZN9Vkontakte20AuthenticationDialogD0Ev
libKF5Vkontakte.so.2:_ZN9Vkontakte20AuthenticationDialogD1Ev
libKF5Vkontakte.so.2:_ZN9Vkontakte20AuthenticationDialogD2Ev
libKF5Vkontakte.so.2:_ZN9Vkontakte28GetApplicationPermissionsJob10handleDataERK10QJsonValue
libKF5Vkontakte.so.2:_ZN9Vkontakte28GetApplicationPermissionsJobC1ERK7QString
libKF5Vkontakte.so.2:_ZN9Vkontakte28GetApplicationPermissionsJobC2ERK7QString
libKF5Vkontakte.so.2:_ZN9Vkontakte28GetApplicationPermissionsJobD0Ev
libKF5Vkontakte.so.2:_ZN9Vkontakte28GetApplicationPermissionsJobD1Ev
libKF5Vkontakte.so.2:_ZN9Vkontakte28GetApplicationPermissionsJobD2Ev
libKF5Vkontakte.so.2:_ZN9Vkontakte5VkApi11qt_metacallEN11QMetaObject4CallEiPPv
libKF5Vkontakte.so.2:_ZN9Vkontakte5VkApi11qt_metacastEPKc
libKF5Vkontakte.so.2:_ZN9Vkontakte5VkApi13authenticatedEv
libKF5Vkontakte.so.2:_ZN9Vkontakte5VkApi15isAuthenticatedEv
libKF5Vkontakte.so.2:_ZN9Vkontakte5VkApi16staticMetaObjectE
libKF5Vkontakte.so.2:_ZN9Vkontakte5VkApi19startAuthenticationEb
libKF5Vkontakte.so.2:_ZN9Vkontakte5VkApi21setInitialAccessTokenERK7QString
libKF5Vkontakte.so.2:_ZN9Vkontakte5VkApi22setRequiredPermissionsENS_14AppPermissions5ValueE
libKF5Vkontakte.so.2:_ZN9Vkontakte5VkApi28slotAuthenticationDialogDoneERK7QString
libKF5Vkontakte.so.2:_ZN9Vkontakte5VkApi34slotApplicationPermissionCheckDoneEP4KJob
libKF5Vkontakte.so.2:_ZN9Vkontakte5VkApi8canceledEv
libKF5Vkontakte.so.2:_ZN9Vkontakte5VkApi8setAppIdERK7QString
libKF5Vkontakte.so.2:_ZN9Vkontakte5VkApiC1EP7QWidget
libKF5Vkontakte.so.2:_ZN9Vkontakte5VkApiC2EP7QWidget
libKF5Vkontakte.so.2:_ZN9Vkontakte5VkApiD0Ev
libKF5Vkontakte.so.2:_ZN9Vkontakte5VkApiD1Ev
libKF5Vkontakte.so.2:_ZN9Vkontakte5VkApiD2Ev
libKF5Vkontakte.so.2:_ZN9Vkontakte8PhotoJob11jobFinishedEP4KJob
libKF5Vkontakte.so.2:_ZN9Vkontakte8PhotoJob11qt_metacallEN11QMetaObject4CallEiPPv
libKF5Vkontakte.so.2:_ZN9Vkontakte8PhotoJob11qt_metacastEPKc
libKF5Vkontakte.so.2:_ZN9Vkontakte8PhotoJob16staticMetaObjectE
libKF5Vkontakte.so.2:_ZN9Vkontakte8PhotoJob5startEv
libKF5Vkontakte.so.2:_ZN9Vkontakte8PhotoJobC1ERK4QUrl
libKF5Vkontakte.so.2:_ZN9Vkontakte8PhotoJobC2ERK4QUrl
libKF5Vkontakte.so.2:_ZN9Vkontakte8PhotoJobD0Ev
libKF5Vkontakte.so.2:_ZN9Vkontakte8PhotoJobD1Ev
libKF5Vkontakte.so.2:_ZN9Vkontakte8PhotoJobD2Ev
libKF5Vkontakte.so.2:_ZN9Vkontakte8UserInfo14allQueryFieldsEv
libKF5Vkontakte.so.2:_ZN9Vkontakte8UserInfoC1ERK11QJsonObject
libKF5Vkontakte.so.2:_ZN9Vkontakte8UserInfoC1ERKS0_
libKF5Vkontakte.so.2:_ZN9Vkontakte8UserInfoC1Ev
libKF5Vkontakte.so.2:_ZN9Vkontakte8UserInfoC2ERK11QJsonObject
libKF5Vkontakte.so.2:_ZN9Vkontakte8UserInfoC2ERKS0_
libKF5Vkontakte.so.2:_ZN9Vkontakte8UserInfoC2Ev
libKF5Vkontakte.so.2:_ZN9Vkontakte8UserInfoD1Ev
libKF5Vkontakte.so.2:_ZN9Vkontakte8UserInfoD2Ev
libKF5Vkontakte.so.2:_ZN9Vkontakte8UserInfoaSERKS0_
libKF5Vkontakte.so.2:_ZN9Vkontakte9AlbumInfoC1ERK11QJsonObject
libKF5Vkontakte.so.2:_ZN9Vkontakte9AlbumInfoC1ERKS0_
libKF5Vkontakte.so.2:_ZN9Vkontakte9AlbumInfoC1Ev
libKF5Vkontakte.so.2:_ZN9Vkontakte9AlbumInfoC2ERK11QJsonObject
libKF5Vkontakte.so.2:_ZN9Vkontakte9AlbumInfoC2ERKS0_
libKF5Vkontakte.so.2:_ZN9Vkontakte9AlbumInfoC2Ev
libKF5Vkontakte.so.2:_ZN9Vkontakte9AlbumInfoD1Ev
libKF5Vkontakte.so.2:_ZN9Vkontakte9AlbumInfoD2Ev
libKF5Vkontakte.so.2:_ZN9Vkontakte9AlbumInfoaSERKS0_
libKF5Vkontakte.so.2:_ZN9Vkontakte9PhotoInfoC1ERK11QJsonObject
libKF5Vkontakte.so.2:_ZN9Vkontakte9PhotoInfoC1ERKS0_
libKF5Vkontakte.so.2:_ZN9Vkontakte9PhotoInfoC1Ev
libKF5Vkontakte.so.2:_ZN9Vkontakte9PhotoInfoC2ERK11QJsonObject
libKF5Vkontakte.so.2:_ZN9Vkontakte9PhotoInfoC2ERKS0_
libKF5Vkontakte.so.2:_ZN9Vkontakte9PhotoInfoC2Ev
libKF5Vkontakte.so.2:_ZN9Vkontakte9PhotoInfoD1Ev
libKF5Vkontakte.so.2:_ZN9Vkontakte9PhotoInfoD2Ev
libKF5Vkontakte.so.2:_ZN9Vkontakte9PhotoInfoaSERKS0_
libKF5Vkontakte.so.2:_ZNK9Vkontakte11UserInfoJob10metaObjectEv
libKF5Vkontakte.so.2:_ZNK9Vkontakte11UserInfoJob8userInfoEv
libKF5Vkontakte.so.2:_ZNK9Vkontakte12AlbumListJob10metaObjectEv
libKF5Vkontakte.so.2:_ZNK9Vkontakte12AlbumListJob4listEv
libKF5Vkontakte.so.2:_ZNK9Vkontakte12PhotoListJob10metaObjectEv
libKF5Vkontakte.so.2:_ZNK9Vkontakte12PhotoListJob4listEv
libKF5Vkontakte.so.2:_ZNK9Vkontakte12VkontakteJob10metaObjectEv
libKF5Vkontakte.so.2:_ZNK9Vkontakte14CreateAlbumJob5albumEv
libKF5Vkontakte.so.2:_ZNK9Vkontakte15UploadPhotosJob10metaObjectEv
libKF5Vkontakte.so.2:_ZNK9Vkontakte15UploadPhotosJob23getMaxRequestFilesCountEv
libKF5Vkontakte.so.2:_ZNK9Vkontakte15UploadPhotosJob4listEv
libKF5Vkontakte.so.2:_ZNK9Vkontakte20AuthenticationDialog10metaObjectEv
libKF5Vkontakte.so.2:_ZNK9Vkontakte28GetApplicationPermissionsJob11permissionsEv
libKF5Vkontakte.so.2:_ZNK9Vkontakte5VkApi10metaObjectEv
libKF5Vkontakte.so.2:_ZNK9Vkontakte5VkApi11accessTokenEv
libKF5Vkontakte.so.2:_ZNK9Vkontakte8PhotoJob10metaObjectEv
libKF5Vkontakte.so.2:_ZNK9Vkontakte8PhotoJob5photoEv
libKF5Vkontakte.so.2:_ZNK9Vkontakte8UserInfo3sexEv
libKF5Vkontakte.so.2:_ZNK9Vkontakte8UserInfo6domainEv
libKF5Vkontakte.so.2:_ZNK9Vkontakte8UserInfo6onlineEv
libKF5Vkontakte.so.2:_ZNK9Vkontakte8UserInfo6userIdEv
libKF5Vkontakte.so.2:_ZNK9Vkontakte8UserInfo8lastNameEv
libKF5Vkontakte.so.2:_ZNK9Vkontakte8UserInfo8nickNameEv
libKF5Vkontakte.so.2:_ZNK9Vkontakte8UserInfo9firstNameEv
libKF5Vkontakte.so.2:_ZNK9Vkontakte9AlbumInfo11descriptionEv
libKF5Vkontakte.so.2:_ZNK9Vkontakte9AlbumInfo14commentPrivacyEv
libKF5Vkontakte.so.2:_ZNK9Vkontakte9AlbumInfo3aidEv
libKF5Vkontakte.so.2:_ZNK9Vkontakte9AlbumInfo4sizeEv
libKF5Vkontakte.so.2:_ZNK9Vkontakte9AlbumInfo5titleEv
libKF5Vkontakte.so.2:_ZNK9Vkontakte9AlbumInfo7isEmptyEv
libKF5Vkontakte.so.2:_ZNK9Vkontakte9AlbumInfo7privacyEv
libKF5Vkontakte.so.2:_ZNK9Vkontakte9PhotoInfo16urlMaxResolutionEv
libKF5Vkontakte.so.2:_ZNK9Vkontakte9PhotoInfo3pidEv
libKF5Vkontakte.so.2:_ZThn16_N9Vkontakte20AuthenticationDialogD0Ev
libKF5Vkontakte.so.2:_ZThn16_N9Vkontakte20AuthenticationDialogD1Ev
libKF5Vkontakte.so.2:__bss_start
libKF5Vkontakte.so.2:_edata
libKF5Vkontakte.so.2:_end
